target datalayout = "e-m:e-p270:32:32-p271:32:32-p272:64:64-i64:64-i128:128-f80:128-n8:16:32:64-S128"
target triple = "x86_64-pc-linux-gnu"

%class.checked_buffer_t = type { i16, ptr, i32, %"class.std::vector" }
%"class.std::vector" = type { %"struct.std::_Vector_base" }
%"struct.std::_Vector_base" = type { %"struct.std::_Vector_base<unsigned char, std::allocator<unsigned char>>::_Vector_impl" }
%"struct.std::_Vector_base<unsigned char, std::allocator<unsigned char>>::_Vector_impl" = type { %"struct.std::_Vector_base<unsigned char, std::allocator<unsigned char>>::_Vector_impl_data" }
%"struct.std::_Vector_base<unsigned char, std::allocator<unsigned char>>::_Vector_impl_data" = type { ptr, ptr, ptr }

@_ZTI17LibRaw_exceptions = linkonce_odr constant { ptr, ptr } { ptr getelementptr inbounds (ptr, ptr @_ZTVN10__cxxabiv116__enum_type_infoE, i64 2), ptr @_ZTS17LibRaw_exceptions }, comdat, align 8

; Function Attrs: mustprogress uwtable
define void @_ZN16checked_buffer_t11checkoffsetEi(ptr noundef nonnull align 8 dereferenceable(48) %0, i32 noundef %1) #3 align 2 {
  %3 = alloca ptr, align 8
  %4 = alloca i32, align 4
  store ptr %0, ptr %3, align 8, !tbaa !176
  store i32 %1, ptr %4, align 4, !tbaa !12
  %5 = load ptr, ptr %3, align 8
  %6 = load i32, ptr %4, align 4, !tbaa !12
  %7 = getelementptr inbounds nuw %class.checked_buffer_t, ptr %5, i32 0, i32 2
  %8 = load i32, ptr %7, align 8, !tbaa !185
  %9 = icmp sge i32 %6, %8
  br i1 %9, label %13, label %10

10:                                               ; preds = %2
  %11 = load i32, ptr %4, align 4, !tbaa !12
  %12 = icmp slt i32 %11, 0
  br i1 %12, label %13, label %15

13:                                               ; preds = %10, %2
  %14 = call ptr @__cxa_allocate_exception(i64 4) #18
  store i32 4, ptr %14, align 16, !tbaa !43
  call void @__cxa_throw(ptr %14, ptr @_ZTI17LibRaw_exceptions, ptr null) #20
  unreachable

15:                                               ; preds = %10
  ret void
}