; Function Attrs: mustprogress uwtable
define void @_ZN16checked_buffer_t11checkoffsetEi(ptr noundef nonnull readonly align 8 captures(none) dereferenceable(48) %0, i32 noundef %1) local_unnamed_addr #4 align 2 {
  %3 = getelementptr inbounds nuw i8, ptr %0, i64 16
  %4 = load i32, ptr %3, align 8, !tbaa !170
  %5 = icmp sge i32 %1, %4
  %6 = icmp slt i32 %1, 0
  %or.cond = or i1 %6, %5
  br i1 %or.cond, label %7, label %9

7:                                                ; preds = %2
  %8 = tail call ptr @__cxa_allocate_exception(i64 4) #30
  store i32 4, ptr %8, align 16, !tbaa !20
  tail call void @__cxa_throw(ptr nonnull %8, ptr nonnull @_ZTI17LibRaw_exceptions, ptr null) #31
  unreachable

9:                                                ; preds = %2
  ret void
}